target datalayout = "e-m:e-p270:32:32-p271:32:32-p272:64:64-i64:64-i128:128-f80:128-n8:16:32:64-S128"
target triple = "x86_64-pc-linux-gnu"

%"class.cv::Rect_" = type { i32, i32, i32, i32 }
%"struct.cv::LBPEvaluator::Feature" = type { %"class.cv::Rect_" }
%"struct.cv::LBPEvaluator::OptFeature" = type { [16 x i32] }

; Function Attrs: mustprogress nounwind uwtable
define hidden void @_ZN2cv12LBPEvaluator10OptFeature10setOffsetsERKNS0_7FeatureEi(ptr noundef nonnull align 4 dereferenceable(64) %0, ptr noundef nonnull align 4 dereferenceable(16) %1, i32 noundef %2) #6 align 2 {
  %4 = alloca ptr, align 8
  %5 = alloca ptr, align 8
  %6 = alloca i32, align 4
  %7 = alloca %"class.cv::Rect_", align 4
  %8 = alloca i32, align 4
  %9 = alloca i32, align 4
  store ptr %0, ptr %4, align 8, !tbaa !289
  store ptr %1, ptr %5, align 8, !tbaa !253
  store i32 %2, ptr %6, align 4, !tbaa !8
  %10 = load ptr, ptr %4, align 8
  call void @llvm.lifetime.start.p0(i64 16, ptr %7) #3
  %11 = load ptr, ptr %5, align 8, !tbaa !253
  %12 = getelementptr inbounds nuw %"struct.cv::LBPEvaluator::Feature", ptr %11, i32 0, i32 0
  call void @llvm.memcpy.p0.p0.i64(ptr align 4 %7, ptr align 4 %12, i64 16, i1 false), !tbaa.struct !29
  call void @llvm.lifetime.start.p0(i64 4, ptr %8) #3
  %13 = getelementptr inbounds nuw %"class.cv::Rect_", ptr %7, i32 0, i32 2
  %14 = load i32, ptr %13, align 4, !tbaa !23
  store i32 %14, ptr %8, align 4, !tbaa !8
  call void @llvm.lifetime.start.p0(i64 4, ptr %9) #3
  %15 = getelementptr inbounds nuw %"class.cv::Rect_", ptr %7, i32 0, i32 3
  %16 = load i32, ptr %15, align 4, !tbaa !24
  store i32 %16, ptr %9, align 4, !tbaa !8
  %17 = getelementptr inbounds nuw %"class.cv::Rect_", ptr %7, i32 0, i32 0
  %18 = load i32, ptr %17, align 4, !tbaa !20
  %19 = add nsw i32 0, %18
  %20 = load i32, ptr %6, align 4, !tbaa !8
  %21 = getelementptr inbounds nuw %"class.cv::Rect_", ptr %7, i32 0, i32 1
  %22 = load i32, ptr %21, align 4, !tbaa !22
  %23 = mul nsw i32 %20, %22
  %24 = add nsw i32 %19, %23
  %25 = getelementptr inbounds nuw %"struct.cv::LBPEvaluator::OptFeature", ptr %10, i32 0, i32 0
  %26 = getelementptr inbounds [16 x i32], ptr %25, i64 0, i64 0
  store i32 %24, ptr %26, align 4, !tbaa !8
  %27 = getelementptr inbounds nuw %"class.cv::Rect_", ptr %7, i32 0, i32 0
  %28 = load i32, ptr %27, align 4, !tbaa !20
  %29 = add nsw i32 0, %28
  %30 = getelementptr inbounds nuw %"class.cv::Rect_", ptr %7, i32 0, i32 2
  %31 = load i32, ptr %30, align 4, !tbaa !23
  %32 = add nsw i32 %29, %31
  %33 = load i32, ptr %6, align 4, !tbaa !8
  %34 = getelementptr inbounds nuw %"class.cv::Rect_", ptr %7, i32 0, i32 1
  %35 = load i32, ptr %34, align 4, !tbaa !22
  %36 = mul nsw i32 %33, %35
  %37 = add nsw i32 %32, %36
  %38 = getelementptr inbounds nuw %"struct.cv::LBPEvaluator::OptFeature", ptr %10, i32 0, i32 0
  %39 = getelementptr inbounds [16 x i32], ptr %38, i64 0, i64 1
  store i32 %37, ptr %39, align 4, !tbaa !8
  %40 = getelementptr inbounds nuw %"class.cv::Rect_", ptr %7, i32 0, i32 0
  %41 = load i32, ptr %40, align 4, !tbaa !20
  %42 = add nsw i32 0, %41
  %43 = load i32, ptr %6, align 4, !tbaa !8
  %44 = getelementptr inbounds nuw %"class.cv::Rect_", ptr %7, i32 0, i32 1
  %45 = load i32, ptr %44, align 4, !tbaa !22
  %46 = getelementptr inbounds nuw %"class.cv::Rect_", ptr %7, i32 0, i32 3
  %47 = load i32, ptr %46, align 4, !tbaa !24
  %48 = add nsw i32 %45, %47
  %49 = mul nsw i32 %43, %48
  %50 = add nsw i32 %42, %49
  %51 = getelementptr inbounds nuw %"struct.cv::LBPEvaluator::OptFeature", ptr %10, i32 0, i32 0
  %52 = getelementptr inbounds [16 x i32], ptr %51, i64 0, i64 4
  store i32 %50, ptr %52, align 4, !tbaa !8
  %53 = getelementptr inbounds nuw %"class.cv::Rect_", ptr %7, i32 0, i32 0
  %54 = load i32, ptr %53, align 4, !tbaa !20
  %55 = add nsw i32 0, %54
  %56 = getelementptr inbounds nuw %"class.cv::Rect_", ptr %7, i32 0, i32 2
  %57 = load i32, ptr %56, align 4, !tbaa !23
  %58 = add nsw i32 %55, %57
  %59 = load i32, ptr %6, align 4, !tbaa !8
  %60 = getelementptr inbounds nuw %"class.cv::Rect_", ptr %7, i32 0, i32 1
  %61 = load i32, ptr %60, align 4, !tbaa !22
  %62 = getelementptr inbounds nuw %"class.cv::Rect_", ptr %7, i32 0, i32 3
  %63 = load i32, ptr %62, align 4, !tbaa !24
  %64 = add nsw i32 %61, %63
  %65 = mul nsw i32 %59, %64
  %66 = add nsw i32 %58, %65
  %67 = getelementptr inbounds nuw %"struct.cv::LBPEvaluator::OptFeature", ptr %10, i32 0, i32 0
  %68 = getelementptr inbounds [16 x i32], ptr %67, i64 0, i64 5
  store i32 %66, ptr %68, align 4, !tbaa !8
  %69 = load i32, ptr %8, align 4, !tbaa !8
  %70 = mul nsw i32 2, %69
  %71 = getelementptr inbounds nuw %"class.cv::Rect_", ptr %7, i32 0, i32 0
  %72 = load i32, ptr %71, align 4, !tbaa !20
  %73 = add nsw i32 %72, %70
  store i32 %73, ptr %71, align 4, !tbaa !20
  %74 = getelementptr inbounds nuw %"class.cv::Rect_", ptr %7, i32 0, i32 0
  %75 = load i32, ptr %74, align 4, !tbaa !20
  %76 = add nsw i32 0, %75
  %77 = load i32, ptr %6, align 4, !tbaa !8
  %78 = getelementptr inbounds nuw %"class.cv::Rect_", ptr %7, i32 0, i32 1
  %79 = load i32, ptr %78, align 4, !tbaa !22
  %80 = mul nsw i32 %77, %79
  %81 = add nsw i32 %76, %80
  %82 = getelementptr inbounds nuw %"struct.cv::LBPEvaluator::OptFeature", ptr %10, i32 0, i32 0
  %83 = getelementptr inbounds [16 x i32], ptr %82, i64 0, i64 2
  store i32 %81, ptr %83, align 4, !tbaa !8
  %84 = getelementptr inbounds nuw %"class.cv::Rect_", ptr %7, i32 0, i32 0
  %85 = load i32, ptr %84, align 4, !tbaa !20
  %86 = add nsw i32 0, %85
  %87 = getelementptr inbounds nuw %"class.cv::Rect_", ptr %7, i32 0, i32 2
  %88 = load i32, ptr %87, align 4, !tbaa !23
  %89 = add nsw i32 %86, %88
  %90 = load i32, ptr %6, align 4, !tbaa !8
  %91 = getelementptr inbounds nuw %"class.cv::Rect_", ptr %7, i32 0, i32 1
  %92 = load i32, ptr %91, align 4, !tbaa !22
  %93 = mul nsw i32 %90, %92
  %94 = add nsw i32 %89, %93
  %95 = getelementptr inbounds nuw %"struct.cv::LBPEvaluator::OptFeature", ptr %10, i32 0, i32 0
  %96 = getelementptr inbounds [16 x i32], ptr %95, i64 0, i64 3
  store i32 %94, ptr %96, align 4, !tbaa !8
  %97 = getelementptr inbounds nuw %"class.cv::Rect_", ptr %7, i32 0, i32 0
  %98 = load i32, ptr %97, align 4, !tbaa !20
  %99 = add nsw i32 0, %98
  %100 = load i32, ptr %6, align 4, !tbaa !8
  %101 = getelementptr inbounds nuw %"class.cv::Rect_", ptr %7, i32 0, i32 1
  %102 = load i32, ptr %101, align 4, !tbaa !22
  %103 = getelementptr inbounds nuw %"class.cv::Rect_", ptr %7, i32 0, i32 3
  %104 = load i32, ptr %103, align 4, !tbaa !24
  %105 = add nsw i32 %102, %104
  %106 = mul nsw i32 %100, %105
  %107 = add nsw i32 %99, %106
  %108 = getelementptr inbounds nuw %"struct.cv::LBPEvaluator::OptFeature", ptr %10, i32 0, i32 0
  %109 = getelementptr inbounds [16 x i32], ptr %108, i64 0, i64 6
  store i32 %107, ptr %109, align 4, !tbaa !8
  %110 = getelementptr inbounds nuw %"class.cv::Rect_", ptr %7, i32 0, i32 0
  %111 = load i32, ptr %110, align 4, !tbaa !20
  %112 = add nsw i32 0, %111
  %113 = getelementptr inbounds nuw %"class.cv::Rect_", ptr %7, i32 0, i32 2
  %114 = load i32, ptr %113, align 4, !tbaa !23
  %115 = add nsw i32 %112, %114
  %116 = load i32, ptr %6, align 4, !tbaa !8
  %117 = getelementptr inbounds nuw %"class.cv::Rect_", ptr %7, i32 0, i32 1
  %118 = load i32, ptr %117, align 4, !tbaa !22
  %119 = getelementptr inbounds nuw %"class.cv::Rect_", ptr %7, i32 0, i32 3
  %120 = load i32, ptr %119, align 4, !tbaa !24
  %121 = add nsw i32 %118, %120
  %122 = mul nsw i32 %116, %121
  %123 = add nsw i32 %115, %122
  %124 = getelementptr inbounds nuw %"struct.cv::LBPEvaluator::OptFeature", ptr %10, i32 0, i32 0
  %125 = getelementptr inbounds [16 x i32], ptr %124, i64 0, i64 7
  store i32 %123, ptr %125, align 4, !tbaa !8
  %126 = load i32, ptr %9, align 4, !tbaa !8
  %127 = mul nsw i32 2, %126
  %128 = getelementptr inbounds nuw %"class.cv::Rect_", ptr %7, i32 0, i32 1
  %129 = load i32, ptr %128, align 4, !tbaa !22
  %130 = add nsw i32 %129, %127
  store i32 %130, ptr %128, align 4, !tbaa !22
  %131 = getelementptr inbounds nuw %"class.cv::Rect_", ptr %7, i32 0, i32 0
  %132 = load i32, ptr %131, align 4, !tbaa !20
  %133 = add nsw i32 0, %132
  %134 = load i32, ptr %6, align 4, !tbaa !8
  %135 = getelementptr inbounds nuw %"class.cv::Rect_", ptr %7, i32 0, i32 1
  %136 = load i32, ptr %135, align 4, !tbaa !22
  %137 = mul nsw i32 %134, %136
  %138 = add nsw i32 %133, %137
  %139 = getelementptr inbounds nuw %"struct.cv::LBPEvaluator::OptFeature", ptr %10, i32 0, i32 0
  %140 = getelementptr inbounds [16 x i32], ptr %139, i64 0, i64 10
  store i32 %138, ptr %140, align 4, !tbaa !8
  %141 = getelementptr inbounds nuw %"class.cv::Rect_", ptr %7, i32 0, i32 0
  %142 = load i32, ptr %141, align 4, !tbaa !20
  %143 = add nsw i32 0, %142
  %144 = getelementptr inbounds nuw %"class.cv::Rect_", ptr %7, i32 0, i32 2
  %145 = load i32, ptr %144, align 4, !tbaa !23
  %146 = add nsw i32 %143, %145
  %147 = load i32, ptr %6, align 4, !tbaa !8
  %148 = getelementptr inbounds nuw %"class.cv::Rect_", ptr %7, i32 0, i32 1
  %149 = load i32, ptr %148, align 4, !tbaa !22
  %150 = mul nsw i32 %147, %149
  %151 = add nsw i32 %146, %150
  %152 = getelementptr inbounds nuw %"struct.cv::LBPEvaluator::OptFeature", ptr %10, i32 0, i32 0
  %153 = getelementptr inbounds [16 x i32], ptr %152, i64 0, i64 11
  store i32 %151, ptr %153, align 4, !tbaa !8
  %154 = getelementptr inbounds nuw %"class.cv::Rect_", ptr %7, i32 0, i32 0
  %155 = load i32, ptr %154, align 4, !tbaa !20
  %156 = add nsw i32 0, %155
  %157 = load i32, ptr %6, align 4, !tbaa !8
  %158 = getelementptr inbounds nuw %"class.cv::Rect_", ptr %7, i32 0, i32 1
  %159 = load i32, ptr %158, align 4, !tbaa !22
  %160 = getelementptr inbounds nuw %"class.cv::Rect_", ptr %7, i32 0, i32 3
  %161 = load i32, ptr %160, align 4, !tbaa !24
  %162 = add nsw i32 %159, %161
  %163 = mul nsw i32 %157, %162
  %164 = add nsw i32 %156, %163
  %165 = getelementptr inbounds nuw %"struct.cv::LBPEvaluator::OptFeature", ptr %10, i32 0, i32 0
  %166 = getelementptr inbounds [16 x i32], ptr %165, i64 0, i64 14
  store i32 %164, ptr %166, align 4, !tbaa !8
  %167 = getelementptr inbounds nuw %"class.cv::Rect_", ptr %7, i32 0, i32 0
  %168 = load i32, ptr %167, align 4, !tbaa !20
  %169 = add nsw i32 0, %168
  %170 = getelementptr inbounds nuw %"class.cv::Rect_", ptr %7, i32 0, i32 2
  %171 = load i32, ptr %170, align 4, !tbaa !23
  %172 = add nsw i32 %169, %171
  %173 = load i32, ptr %6, align 4, !tbaa !8
  %174 = getelementptr inbounds nuw %"class.cv::Rect_", ptr %7, i32 0, i32 1
  %175 = load i32, ptr %174, align 4, !tbaa !22
  %176 = getelementptr inbounds nuw %"class.cv::Rect_", ptr %7, i32 0, i32 3
  %177 = load i32, ptr %176, align 4, !tbaa !24
  %178 = add nsw i32 %175, %177
  %179 = mul nsw i32 %173, %178
  %180 = add nsw i32 %172, %179
  %181 = getelementptr inbounds nuw %"struct.cv::LBPEvaluator::OptFeature", ptr %10, i32 0, i32 0
  %182 = getelementptr inbounds [16 x i32], ptr %181, i64 0, i64 15
  store i32 %180, ptr %182, align 4, !tbaa !8
  %183 = load i32, ptr %8, align 4, !tbaa !8
  %184 = mul nsw i32 2, %183
  %185 = getelementptr inbounds nuw %"class.cv::Rect_", ptr %7, i32 0, i32 0
  %186 = load i32, ptr %185, align 4, !tbaa !20
  %187 = sub nsw i32 %186, %184
  store i32 %187, ptr %185, align 4, !tbaa !20
  %188 = getelementptr inbounds nuw %"class.cv::Rect_", ptr %7, i32 0, i32 0
  %189 = load i32, ptr %188, align 4, !tbaa !20
  %190 = add nsw i32 0, %189
  %191 = load i32, ptr %6, align 4, !tbaa !8
  %192 = getelementptr inbounds nuw %"class.cv::Rect_", ptr %7, i32 0, i32 1
  %193 = load i32, ptr %192, align 4, !tbaa !22
  %194 = mul nsw i32 %191, %193
  %195 = add nsw i32 %190, %194
  %196 = getelementptr inbounds nuw %"struct.cv::LBPEvaluator::OptFeature", ptr %10, i32 0, i32 0
  %197 = getelementptr inbounds [16 x i32], ptr %196, i64 0, i64 8
  store i32 %195, ptr %197, align 4, !tbaa !8
  %198 = getelementptr inbounds nuw %"class.cv::Rect_", ptr %7, i32 0, i32 0
  %199 = load i32, ptr %198, align 4, !tbaa !20
  %200 = add nsw i32 0, %199
  %201 = getelementptr inbounds nuw %"class.cv::Rect_", ptr %7, i32 0, i32 2
  %202 = load i32, ptr %201, align 4, !tbaa !23
  %203 = add nsw i32 %200, %202
  %204 = load i32, ptr %6, align 4, !tbaa !8
  %205 = getelementptr inbounds nuw %"class.cv::Rect_", ptr %7, i32 0, i32 1
  %206 = load i32, ptr %205, align 4, !tbaa !22
  %207 = mul nsw i32 %204, %206
  %208 = add nsw i32 %203, %207
  %209 = getelementptr inbounds nuw %"struct.cv::LBPEvaluator::OptFeature", ptr %10, i32 0, i32 0
  %210 = getelementptr inbounds [16 x i32], ptr %209, i64 0, i64 9
  store i32 %208, ptr %210, align 4, !tbaa !8
  %211 = getelementptr inbounds nuw %"class.cv::Rect_", ptr %7, i32 0, i32 0
  %212 = load i32, ptr %211, align 4, !tbaa !20
  %213 = add nsw i32 0, %212
  %214 = load i32, ptr %6, align 4, !tbaa !8
  %215 = getelementptr inbounds nuw %"class.cv::Rect_", ptr %7, i32 0, i32 1
  %216 = load i32, ptr %215, align 4, !tbaa !22
  %217 = getelementptr inbounds nuw %"class.cv::Rect_", ptr %7, i32 0, i32 3
  %218 = load i32, ptr %217, align 4, !tbaa !24
  %219 = add nsw i32 %216, %218
  %220 = mul nsw i32 %214, %219
  %221 = add nsw i32 %213, %220
  %222 = getelementptr inbounds nuw %"struct.cv::LBPEvaluator::OptFeature", ptr %10, i32 0, i32 0
  %223 = getelementptr inbounds [16 x i32], ptr %222, i64 0, i64 12
  store i32 %221, ptr %223, align 4, !tbaa !8
  %224 = getelementptr inbounds nuw %"class.cv::Rect_", ptr %7, i32 0, i32 0
  %225 = load i32, ptr %224, align 4, !tbaa !20
  %226 = add nsw i32 0, %225
  %227 = getelementptr inbounds nuw %"class.cv::Rect_", ptr %7, i32 0, i32 2
  %228 = load i32, ptr %227, align 4, !tbaa !23
  %229 = add nsw i32 %226, %228
  %230 = load i32, ptr %6, align 4, !tbaa !8
  %231 = getelementptr inbounds nuw %"class.cv::Rect_", ptr %7, i32 0, i32 1
  %232 = load i32, ptr %231, align 4, !tbaa !22
  %233 = getelementptr inbounds nuw %"class.cv::Rect_", ptr %7, i32 0, i32 3
  %234 = load i32, ptr %233, align 4, !tbaa !24
  %235 = add nsw i32 %232, %234
  %236 = mul nsw i32 %230, %235
  %237 = add nsw i32 %229, %236
  %238 = getelementptr inbounds nuw %"struct.cv::LBPEvaluator::OptFeature", ptr %10, i32 0, i32 0
  %239 = getelementptr inbounds [16 x i32], ptr %238, i64 0, i64 13
  store i32 %237, ptr %239, align 4, !tbaa !8
  call void @llvm.lifetime.end.p0(i64 4, ptr %9) #3
  call void @llvm.lifetime.end.p0(i64 4, ptr %8) #3
  call void @llvm.lifetime.end.p0(i64 16, ptr %7) #3
  ret void
}