; Function Attrs: mustprogress nofree norecurse nosync nounwind willreturn memory(argmem: readwrite) uwtable
define hidden void @_ZN2cv12LBPEvaluator10OptFeature10setOffsetsERKNS0_7FeatureEi(ptr noundef nonnull writeonly align 4 captures(none) dereferenceable(64) initializes((0, 64)) %0, ptr noundef nonnull readonly align 4 captures(none) dereferenceable(16) %1, i32 noundef %2) local_unnamed_addr #14 align 2 {
  %.sroa.0.0.copyload = load i32, ptr %1, align 4, !tbaa !15
  %.sroa.23.0..sroa_idx = getelementptr inbounds nuw i8, ptr %1, i64 4
  %.sroa.23.0.copyload = load i32, ptr %.sroa.23.0..sroa_idx, align 4, !tbaa !15
  %.sroa.41.0..sroa_idx = getelementptr inbounds nuw i8, ptr %1, i64 8
  %.sroa.41.0.copyload = load i32, ptr %.sroa.41.0..sroa_idx, align 4, !tbaa !15
  %.sroa.50.0..sroa_idx = getelementptr inbounds nuw i8, ptr %1, i64 12
  %.sroa.50.0.copyload = load i32, ptr %.sroa.50.0..sroa_idx, align 4, !tbaa !15
  %4 = mul nsw i32 %.sroa.23.0.copyload, %2
  %5 = add nsw i32 %4, %.sroa.0.0.copyload
  store i32 %5, ptr %0, align 4, !tbaa !15
  %6 = add nsw i32 %.sroa.41.0.copyload, %.sroa.0.0.copyload
  %7 = add nsw i32 %6, %4
  %8 = getelementptr inbounds nuw i8, ptr %0, i64 4
  store i32 %7, ptr %8, align 4, !tbaa !15
  %9 = add nsw i32 %.sroa.50.0.copyload, %.sroa.23.0.copyload
  %10 = mul nsw i32 %9, %2
  %11 = add nsw i32 %10, %.sroa.0.0.copyload
  %12 = getelementptr inbounds nuw i8, ptr %0, i64 16
  store i32 %11, ptr %12, align 4, !tbaa !15
  %13 = add nsw i32 %10, %6
  %14 = getelementptr inbounds nuw i8, ptr %0, i64 20
  store i32 %13, ptr %14, align 4, !tbaa !15
  %15 = shl nsw i32 %.sroa.41.0.copyload, 1
  %16 = add nsw i32 %15, %.sroa.0.0.copyload
  %17 = add nsw i32 %16, %4
  %18 = getelementptr inbounds nuw i8, ptr %0, i64 8
  store i32 %17, ptr %18, align 4, !tbaa !15
  %19 = add nsw i32 %16, %.sroa.41.0.copyload
  %20 = add nsw i32 %19, %4
  %21 = getelementptr inbounds nuw i8, ptr %0, i64 12
  store i32 %20, ptr %21, align 4, !tbaa !15
  %22 = add nsw i32 %10, %16
  %23 = getelementptr inbounds nuw i8, ptr %0, i64 24
  store i32 %22, ptr %23, align 4, !tbaa !15
  %24 = add nsw i32 %19, %10
  %25 = getelementptr inbounds nuw i8, ptr %0, i64 28
  store i32 %24, ptr %25, align 4, !tbaa !15
  %26 = shl nsw i32 %.sroa.50.0.copyload, 1
  %27 = add nsw i32 %26, %.sroa.23.0.copyload
  %28 = mul nsw i32 %27, %2
  %29 = add nsw i32 %28, %16
  %30 = getelementptr inbounds nuw i8, ptr %0, i64 40
  store i32 %29, ptr %30, align 4, !tbaa !15
  %31 = add nsw i32 %28, %19
  %32 = getelementptr inbounds nuw i8, ptr %0, i64 44
  store i32 %31, ptr %32, align 4, !tbaa !15
  %33 = add nsw i32 %27, %.sroa.50.0.copyload
  %34 = mul nsw i32 %33, %2
  %35 = add nsw i32 %34, %16
  %36 = getelementptr inbounds nuw i8, ptr %0, i64 56
  store i32 %35, ptr %36, align 4, !tbaa !15
  %37 = add nsw i32 %34, %19
  %38 = getelementptr inbounds nuw i8, ptr %0, i64 60
  store i32 %37, ptr %38, align 4, !tbaa !15
  %39 = add nsw i32 %28, %.sroa.0.0.copyload
  %40 = getelementptr inbounds nuw i8, ptr %0, i64 32
  store i32 %39, ptr %40, align 4, !tbaa !15
  %41 = add nsw i32 %28, %6
  %42 = getelementptr inbounds nuw i8, ptr %0, i64 36
  store i32 %41, ptr %42, align 4, !tbaa !15
  %43 = add nsw i32 %34, %.sroa.0.0.copyload
  %44 = getelementptr inbounds nuw i8, ptr %0, i64 48
  store i32 %43, ptr %44, align 4, !tbaa !15
  %45 = add nsw i32 %34, %6
  %46 = getelementptr inbounds nuw i8, ptr %0, i64 52
  store i32 %45, ptr %46, align 4, !tbaa !15
  ret void
}